target datalayout = "e-m:e-p270:32:32-p271:32:32-p272:64:64-i64:64-i128:128-f80:128-n8:16:32:64-S128"
target triple = "x86_64-unknown-linux-gnu"

%struct.QIOChannelTLS = type { %struct.QIOChannel, ptr, ptr, i32, i32 }
%struct.QIOChannel = type { %struct.Object, i32, ptr, ptr, ptr, ptr, ptr, i8 }
%struct.Object = type { ptr, ptr, ptr, i32, ptr }

@.str = private unnamed_addr constant [16 x i8] c"qio-channel-tls\00", align 1
@.str.1 = private unnamed_addr constant [103 x i8] c"/home/dtcxzyw/WorkSpace/Projects/compilers/llvm-opt-benchmark/bench/qemu/qemu/include/io/channel-tls.h\00", align 1
@__func__.QIO_CHANNEL_TLS = private unnamed_addr constant [16 x i8] c"QIO_CHANNEL_TLS\00", align 1

; Function Attrs: nounwind sspstrong uwtable
define internal ptr @QIO_CHANNEL_TLS(ptr noundef %obj) #0 {
entry:
  %obj.addr = alloca ptr, align 8
  store ptr %obj, ptr %obj.addr, align 8
  %0 = load ptr, ptr %obj.addr, align 8
  %call = call ptr @object_dynamic_cast_assert(ptr noundef %0, ptr noundef @.str, ptr noundef @.str.1, i32 noundef 30, ptr noundef @__func__.QIO_CHANNEL_TLS)
  ret ptr %call
}

; Function Attrs: nounwind sspstrong uwtable
define internal void @qio_channel_tls_finalize(ptr noundef %obj) #0 {
entry:
  %obj.addr = alloca ptr, align 8
  %ioc = alloca ptr, align 8
  store ptr %obj, ptr %obj.addr, align 8
  %0 = load ptr, ptr %obj.addr, align 8
  %call = call ptr @QIO_CHANNEL_TLS(ptr noundef %0)
  store ptr %call, ptr %ioc, align 8
  %1 = load ptr, ptr %ioc, align 8
  %master = getelementptr inbounds %struct.QIOChannelTLS, ptr %1, i32 0, i32 1
  %2 = load ptr, ptr %master, align 8
  call void @object_unref(ptr noundef %2)
  %3 = load ptr, ptr %ioc, align 8
  %session = getelementptr inbounds %struct.QIOChannelTLS, ptr %3, i32 0, i32 2
  %4 = load ptr, ptr %session, align 8
  call void @qcrypto_tls_session_free(ptr noundef %4)
  ret void
}