; Function Attrs: nounwind sspstrong uwtable
define internal void @qio_channel_tls_finalize(ptr noundef %obj) #0 {
entry:
  %call.i = tail call ptr @object_dynamic_cast_assert(ptr noundef %obj, ptr noundef nonnull @.str, ptr noundef nonnull @.str.1, i32 noundef 30, ptr noundef nonnull @__func__.QIO_CHANNEL_TLS) #8
  %master = getelementptr inbounds nuw i8, ptr %call.i, i64 96
  %0 = load ptr, ptr %master, align 8
  tail call void @object_unref(ptr noundef %0) #8
  %session = getelementptr inbounds nuw i8, ptr %call.i, i64 104
  %1 = load ptr, ptr %session, align 8
  tail call void @qcrypto_tls_session_free(ptr noundef %1) #8
  ret void
}